SF:/home/nicholas/git/nicholaswilde/rescue-groups-mcp/src/cli.rs
FN:188,_RNvNtNtCskhR2VHbiGqv_17rescue_groups_mcp3cli5testss_16test_search_args
FN:201,_RNvNtNtCskhR2VHbiGqv_17rescue_groups_mcp3cli5testss_26test_search_events_removed
FNDA:1,_RNvNtNtCskhR2VHbiGqv_17rescue_groups_mcp3cli5testss_16test_search_args
FNDA:1,_RNvNtNtCskhR2VHbiGqv_17rescue_groups_mcp3cli5testss_26test_search_events_removed
FNF:2
FNH:2
DA:188,1
DA:189,1
DA:190,1
DA:191,1
DA:192,1
DA:193,1
DA:194,1
DA:196,0
DA:198,1
DA:201,1
DA:202,1
DA:203,1
DA:204,1
DA:205,1
BRF:0
BRH:0
LF:14
LH:13
end_of_record
SF:/home/nicholas/git/nicholaswilde/rescue-groups-mcp/src/client.rs
FN:274,_RINvNtCskhR2VHbiGqv_17rescue_groups_mcp6client10add_filterRNtNtCsdB7fS8jepxw_5alloc6string6StringEB4_
FN:274,_RINvNtCskhR2VHbiGqv_17rescue_groups_mcp6client10add_filterReEB4_
FN:329,_RNCNCNvNtCskhR2VHbiGqv_17rescue_groups_mcp6client10fetch_pets00B7_
FN:178,_RNCNCNvNtCskhR2VHbiGqv_17rescue_groups_mcp6client15compare_animals00B7_
FN:35,_RNCNCNvNtCskhR2VHbiGqv_17rescue_groups_mcp6client16fetch_with_cache00B7_
FN:21,_RNCNCNvNtCskhR2VHbiGqv_17rescue_groups_mcp6client16fetch_with_cache0s_0B7_
FN:75,_RNCNCNvNtCskhR2VHbiGqv_17rescue_groups_mcp6client18resolve_species_id00B7_
FN:81,_RNCNCNvNtCskhR2VHbiGqv_17rescue_groups_mcp6client18resolve_species_id0s_0B7_
FN:287,_RNCNvNtCskhR2VHbiGqv_17rescue_groups_mcp6client10fetch_pets0B5_
FN:95,_RNCNvNtCskhR2VHbiGqv_17rescue_groups_mcp6client11list_breeds0B5_
FN:146,_RNCNvNtCskhR2VHbiGqv_17rescue_groups_mcp6client12list_animals0B5_
FN:105,_RNCNvNtCskhR2VHbiGqv_17rescue_groups_mcp6client12list_species0B5_
FN:110,_RNCNvNtCskhR2VHbiGqv_17rescue_groups_mcp6client13list_metadata0B5_
FN:400,_RNCNvNtCskhR2VHbiGqv_17rescue_groups_mcp6client14get_random_pet0B5_
FN:167,_RNCNvNtCskhR2VHbiGqv_17rescue_groups_mcp6client15compare_animals0B5_
FN:16,_RNCNvNtCskhR2VHbiGqv_17rescue_groups_mcp6client16fetch_with_cache0B5_
FN:159,_RNCNvNtCskhR2VHbiGqv_17rescue_groups_mcp6client16get_contact_info0B5_
FN:251,_RNCNvNtCskhR2VHbiGqv_17rescue_groups_mcp6client16list_org_animals0B5_
FN:126,_RNCNvNtCskhR2VHbiGqv_17rescue_groups_mcp6client17get_breed_details0B5_
FN:425,_RNCNvNtCskhR2VHbiGqv_17rescue_groups_mcp6client18fetch_adopted_pets0B5_
FN:154,_RNCNvNtCskhR2VHbiGqv_17rescue_groups_mcp6client18get_animal_details0B5_
FN:67,_RNCNvNtCskhR2VHbiGqv_17rescue_groups_mcp6client18resolve_species_id0B5_
FN:134,_RNCNvNtCskhR2VHbiGqv_17rescue_groups_mcp6client19list_metadata_types0B5_
FN:205,_RNCNvNtCskhR2VHbiGqv_17rescue_groups_mcp6client20search_organizations0B5_
FN:246,_RNCNvNtCskhR2VHbiGqv_17rescue_groups_mcp6client24get_organization_details0B5_
FN:287,_RNvNtCskhR2VHbiGqv_17rescue_groups_mcp6client10fetch_pets
FN:95,_RNvNtCskhR2VHbiGqv_17rescue_groups_mcp6client11list_breeds
FN:146,_RNvNtCskhR2VHbiGqv_17rescue_groups_mcp6client12list_animals
FN:105,_RNvNtCskhR2VHbiGqv_17rescue_groups_mcp6client12list_species
FN:110,_RNvNtCskhR2VHbiGqv_17rescue_groups_mcp6client13list_metadata
FN:397,_RNvNtCskhR2VHbiGqv_17rescue_groups_mcp6client14get_random_pet
FN:167,_RNvNtCskhR2VHbiGqv_17rescue_groups_mcp6client15compare_animals
FN:11,_RNvNtCskhR2VHbiGqv_17rescue_groups_mcp6client16fetch_with_cache
FN:159,_RNvNtCskhR2VHbiGqv_17rescue_groups_mcp6client16get_contact_info
FN:251,_RNvNtCskhR2VHbiGqv_17rescue_groups_mcp6client16list_org_animals
FN:259,_RNvNtCskhR2VHbiGqv_17rescue_groups_mcp6client17build_search_body
FN:126,_RNvNtCskhR2VHbiGqv_17rescue_groups_mcp6client17get_breed_details
FN:422,_RNvNtCskhR2VHbiGqv_17rescue_groups_mcp6client18fetch_adopted_pets
FN:151,_RNvNtCskhR2VHbiGqv_17rescue_groups_mcp6client18get_animal_details
FN:67,_RNvNtCskhR2VHbiGqv_17rescue_groups_mcp6client18resolve_species_id
FN:134,_RNvNtCskhR2VHbiGqv_17rescue_groups_mcp6client19list_metadata_types
FN:202,_RNvNtCskhR2VHbiGqv_17rescue_groups_mcp6client20search_organizations
FN:243,_RNvNtCskhR2VHbiGqv_17rescue_groups_mcp6client24get_organization_details
FNDA:0,_RINvNtCskhR2VHbiGqv_17rescue_groups_mcp6client10add_filterRNtNtCsdB7fS8jepxw_5alloc6string6StringEB4_
FNDA:0,_RINvNtCskhR2VHbiGqv_17rescue_groups_mcp6client10add_filterReEB4_
FNDA:0,_RNCNCNvNtCskhR2VHbiGqv_17rescue_groups_mcp6client10fetch_pets00B7_
FNDA:0,_RNCNCNvNtCskhR2VHbiGqv_17rescue_groups_mcp6client15compare_animals00B7_
FNDA:0,_RNCNCNvNtCskhR2VHbiGqv_17rescue_groups_mcp6client16fetch_with_cache00B7_
FNDA:0,_RNCNCNvNtCskhR2VHbiGqv_17rescue_groups_mcp6client16fetch_with_cache0s_0B7_
FNDA:0,_RNCNCNvNtCskhR2VHbiGqv_17rescue_groups_mcp6client18resolve_species_id00B7_
FNDA:0,_RNCNCNvNtCskhR2VHbiGqv_17rescue_groups_mcp6client18resolve_species_id0s_0B7_
FNDA:0,_RNCNvNtCskhR2VHbiGqv_17rescue_groups_mcp6client10fetch_pets0B5_
FNDA:0,_RNCNvNtCskhR2VHbiGqv_17rescue_groups_mcp6client11list_breeds0B5_
FNDA:0,_RNCNvNtCskhR2VHbiGqv_17rescue_groups_mcp6client12list_animals0B5_
FNDA:0,_RNCNvNtCskhR2VHbiGqv_17rescue_groups_mcp6client12list_species0B5_
FNDA:0,_RNCNvNtCskhR2VHbiGqv_17rescue_groups_mcp6client13list_metadata0B5_
FNDA:0,_RNCNvNtCskhR2VHbiGqv_17rescue_groups_mcp6client14get_random_pet0B5_
FNDA:0,_RNCNvNtCskhR2VHbiGqv_17rescue_groups_mcp6client15compare_animals0B5_
FNDA:1,_RNCNvNtCskhR2VHbiGqv_17rescue_groups_mcp6client16fetch_with_cache0B5_
FNDA:0,_RNCNvNtCskhR2VHbiGqv_17rescue_groups_mcp6client16get_contact_info0B5_
FNDA:0,_RNCNvNtCskhR2VHbiGqv_17rescue_groups_mcp6client16list_org_animals0B5_
FNDA:1,_RNCNvNtCskhR2VHbiGqv_17rescue_groups_mcp6client17get_breed_details0B5_
FNDA:0,_RNCNvNtCskhR2VHbiGqv_17rescue_groups_mcp6client18fetch_adopted_pets0B5_
FNDA:0,_RNCNvNtCskhR2VHbiGqv_17rescue_groups_mcp6client18get_animal_details0B5_
FNDA:0,_RNCNvNtCskhR2VHbiGqv_17rescue_groups_mcp6client18resolve_species_id0B5_
FNDA:0,_RNCNvNtCskhR2VHbiGqv_17rescue_groups_mcp6client19list_metadata_types0B5_
FNDA:0,_RNCNvNtCskhR2VHbiGqv_17rescue_groups_mcp6client20search_organizations0B5_
FNDA:0,_RNCNvNtCskhR2VHbiGqv_17rescue_groups_mcp6client24get_organization_details0B5_
FNDA:0,_RNvNtCskhR2VHbiGqv_17rescue_groups_mcp6client10fetch_pets
FNDA:0,_RNvNtCskhR2VHbiGqv_17rescue_groups_mcp6client11list_breeds
FNDA:0,_RNvNtCskhR2VHbiGqv_17rescue_groups_mcp6client12list_animals
FNDA:0,_RNvNtCskhR2VHbiGqv_17rescue_groups_mcp6client12list_species
FNDA:0,_RNvNtCskhR2VHbiGqv_17rescue_groups_mcp6client13list_metadata
FNDA:0,_RNvNtCskhR2VHbiGqv_17rescue_groups_mcp6client14get_random_pet
FNDA:0,_RNvNtCskhR2VHbiGqv_17rescue_groups_mcp6client15compare_animals
FNDA:1,_RNvNtCskhR2VHbiGqv_17rescue_groups_mcp6client16fetch_with_cache
FNDA:0,_RNvNtCskhR2VHbiGqv_17rescue_groups_mcp6client16get_contact_info
FNDA:0,_RNvNtCskhR2VHbiGqv_17rescue_groups_mcp6client16list_org_animals
FNDA:0,_RNvNtCskhR2VHbiGqv_17rescue_groups_mcp6client17build_search_body
FNDA:1,_RNvNtCskhR2VHbiGqv_17rescue_groups_mcp6client17get_breed_details
FNDA:0,_RNvNtCskhR2VHbiGqv_17rescue_groups_mcp6client18fetch_adopted_pets
FNDA:0,_RNvNtCskhR2VHbiGqv_17rescue_groups_mcp6client18get_animal_details
FNDA:0,_RNvNtCskhR2VHbiGqv_17rescue_groups_mcp6client18resolve_species_id
FNDA:0,_RNvNtCskhR2VHbiGqv_17rescue_groups_mcp6client19list_metadata_types
FNDA:0,_RNvNtCskhR2VHbiGqv_17rescue_groups_mcp6client20search_organizations
FNDA:0,_RNvNtCskhR2VHbiGqv_17rescue_groups_mcp6client24get_organization_details
FNF:42
FNH:4
DA:11,1
DA:12,1
DA:13,1
DA:14,1
DA:15,1
DA:16,1
DA:17,1
DA:21,1
DA:24,1
DA:25,0
DA:26,1
DA:30,1
DA:32,1
DA:33,1
DA:34,1
DA:35,1
DA:37,1
DA:38,1
DA:39,1
DA:42,1
DA:43,1
DA:44,1
DA:46,1
DA:47,0
DA:48,1
DA:50,1
DA:52,0
DA:53,0
DA:54,0
DA:55,0
DA:56,0
DA:57,0
DA:58,0
DA:59,0
DA:60,0
DA:62,0
DA:63,0
DA:64,0
DA:65,1
DA:67,0
DA:68,0
DA:69,0
DA:70,0
DA:72,0
DA:73,0
DA:74,0
DA:75,0
DA:76,0
DA:77,0
DA:78,0
DA:80,0
DA:81,0
DA:82,0
DA:83,0
DA:84,0
DA:85,0
DA:86,0
DA:88,0
DA:89,0
DA:91,0
DA:93,0
DA:95,0
DA:96,0
DA:98,0
DA:102,0
DA:103,0
DA:105,0
DA:106,0
DA:107,0
DA:108,0
DA:110,0
DA:111,0
DA:112,0
DA:113,0
DA:118,0
DA:123,0
DA:124,0
DA:126,1
DA:127,1
DA:131,1
DA:132,1
DA:134,0
DA:135,0
DA:137,0
DA:138,0
DA:139,0
DA:140,0
DA:141,0
DA:143,0
DA:144,0
DA:146,0
DA:147,0
DA:148,0
DA:149,0
DA:151,0
DA:152,0
DA:153,0
DA:154,0
DA:155,0
DA:156,0
DA:157,0
DA:159,0
DA:160,0
DA:164,0
DA:165,0
DA:167,0
DA:168,0
DA:170,0
DA:171,0
DA:172,0
DA:174,0
DA:175,0
DA:176,0
DA:177,0
DA:178,0
DA:182,0
DA:183,0
DA:185,0
DA:186,0
DA:187,0
DA:188,0
DA:189,0
DA:190,0
DA:191,0
DA:192,0
DA:194,0
DA:195,0
DA:199,0
DA:200,0
DA:202,0
DA:203,0
DA:204,0
DA:205,0
DA:206,0
DA:207,0
DA:208,0
DA:209,0
DA:210,0
DA:211,0
DA:213,0
DA:214,0
DA:215,0
DA:216,0
DA:217,0
DA:218,0
DA:220,0
DA:222,0
DA:223,0
DA:224,0
DA:230,0
DA:231,0
DA:232,0
DA:233,0
DA:234,0
DA:240,0
DA:241,0
DA:243,0
DA:244,0
DA:245,0
DA:246,0
DA:247,0
DA:248,0
DA:249,0
DA:251,0
DA:252,0
DA:256,0
DA:257,0
DA:259,0
DA:260,0
DA:261,0
DA:262,0
DA:263,0
DA:267,0
DA:268,0
DA:269,0
DA:271,0
DA:272,0
DA:274,0
DA:275,0
DA:276,0
DA:277,0
DA:278,0
DA:279,0
DA:280,0
DA:281,0
DA:282,0
DA:283,0
DA:285,0
DA:287,0
DA:292,0
DA:293,0
DA:294,0
DA:295,0
DA:296,0
DA:297,0
DA:299,0
DA:300,0
DA:301,0
DA:302,0
DA:303,0
DA:306,0
DA:311,0
DA:313,0
DA:314,0
DA:315,0
DA:317,0
DA:318,0
DA:319,0
DA:321,0
DA:322,0
DA:323,0
DA:325,0
DA:326,0
DA:327,0
DA:329,0
DA:331,0
DA:332,0
DA:333,0
DA:334,0
DA:335,0
DA:336,0
DA:337,0
DA:338,0
DA:340,0
DA:341,0
DA:342,0
DA:343,0
DA:344,0
DA:345,0
DA:346,0
DA:347,0
DA:349,0
DA:350,0
DA:351,0
DA:352,0
DA:353,0
DA:354,0
DA:355,0
DA:356,0
DA:358,0
DA:359,0
DA:360,0
DA:361,0
DA:362,0
DA:363,0
DA:364,0
DA:365,0
DA:367,0
DA:368,0
DA:369,0
DA:370,0
DA:371,0
DA:372,0
DA:373,0
DA:374,0
DA:376,0
DA:377,0
DA:378,0
DA:379,0
DA:380,0
DA:381,0
DA:382,0
DA:383,0
DA:385,0
DA:386,0
DA:387,0
DA:389,0
DA:390,0
DA:391,0
DA:393,0
DA:394,0
DA:395,0
DA:397,0
DA:398,0
DA:399,0
DA:400,0
DA:401,0
DA:402,0
DA:403,0
DA:404,0
DA:405,0
DA:406,0
DA:407,0
DA:408,0
DA:409,0
DA:410,0
DA:411,0
DA:412,0
DA:413,0
DA:414,0
DA:415,0
DA:416,0
DA:417,0
DA:418,0
DA:419,0
DA:420,0
DA:422,0
DA:423,0
DA:424,0
DA:425,0
DA:426,0
DA:427,0
DA:428,0
DA:429,0
DA:430,0
DA:431,0
DA:434,0
DA:439,0
DA:440,0
DA:441,0
BRF:0
BRH:0
LF:332
LH:31
end_of_record
SF:/home/nicholas/git/nicholaswilde/rescue-groups-mcp/src/commands.rs
FN:22,_RNvNtCskhR2VHbiGqv_17rescue_groups_mcp8commands14handle_command
FN:127,_RNCNCNCNvNtCskhR2VHbiGqv_17rescue_groups_mcp8commands14handle_command0sb_00B9_
FN:33,_RNCNCNvNtCskhR2VHbiGqv_17rescue_groups_mcp8commands14handle_command00B7_
FN:45,_RNCNCNvNtCskhR2VHbiGqv_17rescue_groups_mcp8commands14handle_command0s0_0B7_
FN:53,_RNCNCNvNtCskhR2VHbiGqv_17rescue_groups_mcp8commands14handle_command0s1_0B7_
FN:59,_RNCNCNvNtCskhR2VHbiGqv_17rescue_groups_mcp8commands14handle_command0s2_0B7_
FN:65,_RNCNCNvNtCskhR2VHbiGqv_17rescue_groups_mcp8commands14handle_command0s3_0B7_
FN:74,_RNCNCNvNtCskhR2VHbiGqv_17rescue_groups_mcp8commands14handle_command0s4_0B7_
FN:83,_RNCNCNvNtCskhR2VHbiGqv_17rescue_groups_mcp8commands14handle_command0s5_0B7_
FN:89,_RNCNCNvNtCskhR2VHbiGqv_17rescue_groups_mcp8commands14handle_command0s6_0B7_
FN:95,_RNCNCNvNtCskhR2VHbiGqv_17rescue_groups_mcp8commands14handle_command0s7_0B7_
FN:102,_RNCNCNvNtCskhR2VHbiGqv_17rescue_groups_mcp8commands14handle_command0s8_0B7_
FN:108,_RNCNCNvNtCskhR2VHbiGqv_17rescue_groups_mcp8commands14handle_command0s9_0B7_
FN:39,_RNCNCNvNtCskhR2VHbiGqv_17rescue_groups_mcp8commands14handle_command0s_0B7_
FN:117,_RNCNCNvNtCskhR2VHbiGqv_17rescue_groups_mcp8commands14handle_command0sa_0B7_
FN:123,_RNCNCNvNtCskhR2VHbiGqv_17rescue_groups_mcp8commands14handle_command0sb_0B7_
FN:26,_RNCNvNtCskhR2VHbiGqv_17rescue_groups_mcp8commands14handle_command0B5_
FNDA:0,_RNvNtCskhR2VHbiGqv_17rescue_groups_mcp8commands14handle_command
FNDA:0,_RNCNCNCNvNtCskhR2VHbiGqv_17rescue_groups_mcp8commands14handle_command0sb_00B9_
FNDA:0,_RNCNCNvNtCskhR2VHbiGqv_17rescue_groups_mcp8commands14handle_command00B7_
FNDA:0,_RNCNCNvNtCskhR2VHbiGqv_17rescue_groups_mcp8commands14handle_command0s0_0B7_
FNDA:0,_RNCNCNvNtCskhR2VHbiGqv_17rescue_groups_mcp8commands14handle_command0s1_0B7_
FNDA:0,_RNCNCNvNtCskhR2VHbiGqv_17rescue_groups_mcp8commands14handle_command0s2_0B7_
FNDA:0,_RNCNCNvNtCskhR2VHbiGqv_17rescue_groups_mcp8commands14handle_command0s3_0B7_
FNDA:0,_RNCNCNvNtCskhR2VHbiGqv_17rescue_groups_mcp8commands14handle_command0s4_0B7_
FNDA:0,_RNCNCNvNtCskhR2VHbiGqv_17rescue_groups_mcp8commands14handle_command0s5_0B7_
FNDA:0,_RNCNCNvNtCskhR2VHbiGqv_17rescue_groups_mcp8commands14handle_command0s6_0B7_
FNDA:0,_RNCNCNvNtCskhR2VHbiGqv_17rescue_groups_mcp8commands14handle_command0s7_0B7_
FNDA:0,_RNCNCNvNtCskhR2VHbiGqv_17rescue_groups_mcp8commands14handle_command0s8_0B7_
FNDA:0,_RNCNCNvNtCskhR2VHbiGqv_17rescue_groups_mcp8commands14handle_command0s9_0B7_
FNDA:0,_RNCNCNvNtCskhR2VHbiGqv_17rescue_groups_mcp8commands14handle_command0s_0B7_
FNDA:0,_RNCNCNvNtCskhR2VHbiGqv_17rescue_groups_mcp8commands14handle_command0sa_0B7_
FNDA:0,_RNCNCNvNtCskhR2VHbiGqv_17rescue_groups_mcp8commands14handle_command0sb_0B7_
FNDA:0,_RNCNvNtCskhR2VHbiGqv_17rescue_groups_mcp8commands14handle_command0B5_
FNF:17
FNH:0
DA:22,0
DA:23,0
DA:24,0
DA:25,0
DA:26,0
DA:27,0
DA:30,0
DA:32,0
DA:33,0
DA:34,0
DA:35,0
DA:36,0
DA:39,0
DA:40,0
DA:41,0
DA:42,0
DA:44,0
DA:45,0
DA:46,0
DA:47,0
DA:48,0
DA:49,0
DA:50,0
DA:52,0
DA:53,0
DA:54,0
DA:55,0
DA:56,0
DA:58,0
DA:59,0
DA:60,0
DA:61,0
DA:62,0
DA:64,0
DA:65,0
DA:66,0
DA:67,0
DA:68,0
DA:70,0
DA:71,0
DA:72,0
DA:73,0
DA:74,0
DA:75,0
DA:76,0
DA:77,0
DA:78,0
DA:80,0
DA:82,0
DA:83,0
DA:84,0
DA:85,0
DA:86,0
DA:88,0
DA:89,0
DA:90,0
DA:91,0
DA:92,0
DA:94,0
DA:95,0
DA:96,0
DA:97,0
DA:98,0
DA:100,0
DA:101,0
DA:102,0
DA:103,0
DA:104,0
DA:105,0
DA:107,0
DA:108,0
DA:109,0
DA:110,0
DA:111,0
DA:112,0
DA:113,0
DA:115,0
DA:116,0
DA:117,0
DA:118,0
DA:119,0
DA:120,0
DA:123,0
DA:124,0
DA:125,0
DA:126,0
DA:127,0
DA:128,0
DA:129,0
DA:130,0
DA:131,0
DA:132,0
DA:134,0
DA:135,0
DA:136,0
DA:138,0
DA:139,0
DA:140,0
DA:142,0
DA:143,0
DA:144,0
DA:145,0
DA:146,0
DA:147,0
DA:148,0
DA:149,0
DA:150,0
DA:152,0
DA:153,0
DA:154,0
DA:156,0
DA:157,0
DA:158,0
DA:159,0
DA:162,0
BRF:0
BRH:0
LF:130
LH:0
end_of_record
SF:/home/nicholas/git/nicholaswilde/rescue-groups-mcp/src/config.rs
FN:41,_RNvNtCskhR2VHbiGqv_17rescue_groups_mcp6config19merge_configuration
FN:48,_RNCNvNtCskhR2VHbiGqv_17rescue_groups_mcp6config19merge_configuration0B5_
FN:64,_RNCNvNtCskhR2VHbiGqv_17rescue_groups_mcp6config19merge_configurations0_0B5_
FN:101,_RNCNvNtCskhR2VHbiGqv_17rescue_groups_mcp6config19merge_configurations3_0B5_
FN:102,_RNCNvNtCskhR2VHbiGqv_17rescue_groups_mcp6config19merge_configurations4_0B5_
FN:106,_RNCNvNtCskhR2VHbiGqv_17rescue_groups_mcp6config19merge_configurations6_0B5_
FN:107,_RNCNvNtCskhR2VHbiGqv_17rescue_groups_mcp6config19merge_configurations7_0B5_
FN:63,_RNCNvNtCskhR2VHbiGqv_17rescue_groups_mcp6config19merge_configurations_0B5_
FN:126,_RNvNtNtCskhR2VHbiGqv_17rescue_groups_mcp6config5testss_32test_merge_configuration_cli_key
FN:140,_RNvNtNtCskhR2VHbiGqv_17rescue_groups_mcp6config5testss_36test_merge_configuration_missing_key
FNDA:2,_RNvNtCskhR2VHbiGqv_17rescue_groups_mcp6config19merge_configuration
FNDA:0,_RNCNvNtCskhR2VHbiGqv_17rescue_groups_mcp6config19merge_configuration0B5_
FNDA:1,_RNCNvNtCskhR2VHbiGqv_17rescue_groups_mcp6config19merge_configurations0_0B5_
FNDA:0,_RNCNvNtCskhR2VHbiGqv_17rescue_groups_mcp6config19merge_configurations3_0B5_
FNDA:1,_RNCNvNtCskhR2VHbiGqv_17rescue_groups_mcp6config19merge_configurations4_0B5_
FNDA:0,_RNCNvNtCskhR2VHbiGqv_17rescue_groups_mcp6config19merge_configurations6_0B5_
FNDA:1,_RNCNvNtCskhR2VHbiGqv_17rescue_groups_mcp6config19merge_configurations7_0B5_
FNDA:0,_RNCNvNtCskhR2VHbiGqv_17rescue_groups_mcp6config19merge_configurations_0B5_
FNDA:1,_RNvNtNtCskhR2VHbiGqv_17rescue_groups_mcp6config5testss_32test_merge_configuration_cli_key
FNDA:1,_RNvNtNtCskhR2VHbiGqv_17rescue_groups_mcp6config5testss_36test_merge_configuration_missing_key
FNF:10
FNH:6
DA:41,2
DA:42,2
DA:44,2
DA:45,0
DA:46,0
DA:47,0
DA:48,0
DA:49,0
DA:50,0
DA:51,0
DA:52,0
DA:53,0
DA:54,0
DA:57,2
DA:60,2
DA:61,2
DA:62,2
DA:63,2
DA:64,2
DA:65,1
DA:66,1
DA:67,1
DA:68,1
DA:70,1
DA:71,1
DA:72,1
DA:73,1
DA:76,1
DA:77,1
DA:78,1
DA:79,1
DA:80,1
DA:82,1
DA:84,1
DA:85,1
DA:86,1
DA:87,1
DA:88,1
DA:91,1
DA:92,1
DA:93,1
DA:94,1
DA:97,1
DA:98,1
DA:99,1
DA:100,1
DA:101,1
DA:102,1
DA:103,1
DA:104,1
DA:105,1
DA:106,1
DA:107,1
DA:108,1
DA:109,1
DA:110,1
DA:111,1
DA:112,1
DA:114,1
DA:115,1
DA:116,1
DA:118,2
DA:126,1
DA:127,1
DA:128,1
DA:129,1
DA:130,1
DA:131,1
DA:132,1
DA:134,1
DA:135,1
DA:136,1
DA:137,1
DA:140,1
DA:141,1
DA:142,1
DA:143,1
DA:144,1
DA:145,1
DA:146,1
DA:148,1
DA:149,1
DA:150,1
DA:151,1
DA:152,0
DA:154,1
BRF:0
BRH:0
LF:94
LH:79
end_of_record
SF:/home/nicholas/git/nicholaswilde/rescue-groups-mcp/src/error.rs
FN:37,_RNvXNtCskhR2VHbiGqv_17rescue_groups_mcp5errorNtB2_8AppErrorINtNtCs7dTDQl1DYhd_4core7convert4FromNtNtCsdB7fS8jepxw_5alloc6string6StringE4from
FN:43,_RNvXs_NtCskhR2VHbiGqv_17rescue_groups_mcp5errorNtB4_8AppErrorINtNtCs7dTDQl1DYhd_4core7convert4FromReE4from
FN:49,_RNvMs0_NtCskhR2VHbiGqv_17rescue_groups_mcp5errorNtB5_8AppError17to_json_rpc_error
FNDA:0,_RNvXNtCskhR2VHbiGqv_17rescue_groups_mcp5errorNtB2_8AppErrorINtNtCs7dTDQl1DYhd_4core7convert4FromNtNtCsdB7fS8jepxw_5alloc6string6StringE4from
FNDA:0,_RNvXs_NtCskhR2VHbiGqv_17rescue_groups_mcp5errorNtB4_8AppErrorINtNtCs7dTDQl1DYhd_4core7convert4FromReE4from
FNDA:1,_RNvMs0_NtCskhR2VHbiGqv_17rescue_groups_mcp5errorNtB5_8AppError17to_json_rpc_error
FNF:3
FNH:1
DA:37,0
DA:38,0
DA:39,0
DA:43,0
DA:44,0
DA:45,0
DA:49,1
DA:50,1
DA:51,0
DA:52,1
DA:53,0
DA:58,0
DA:61,1
DA:62,1
DA:63,1
DA:65,1
BRF:0
BRH:0
LF:16
LH:7
end_of_record
SF:/home/nicholas/git/nicholaswilde/rescue-groups-mcp/src/fmt.rs
FN:178,_RNvNtCskhR2VHbiGqv_17rescue_groups_mcp3fmt17format_single_org
FN:250,_RNvNtCskhR2VHbiGqv_17rescue_groups_mcp3fmt18format_org_results
FN:5,_RNvNtCskhR2VHbiGqv_17rescue_groups_mcp3fmt19extract_single_item
FN:38,_RNvNtCskhR2VHbiGqv_17rescue_groups_mcp3fmt19format_contact_info
FN:199,_RNvNtCskhR2VHbiGqv_17rescue_groups_mcp3fmt20format_breed_details
FN:282,_RNvNtCskhR2VHbiGqv_17rescue_groups_mcp3fmt20format_breed_results
FN:13,_RNvNtCskhR2VHbiGqv_17rescue_groups_mcp3fmt20format_single_animal
FN:85,_RNvNtCskhR2VHbiGqv_17rescue_groups_mcp3fmt21format_animal_results
FN:206,_RNvNtCskhR2VHbiGqv_17rescue_groups_mcp3fmt22format_species_results
FN:118,_RNvNtCskhR2VHbiGqv_17rescue_groups_mcp3fmt23format_comparison_table
FN:226,_RNvNtCskhR2VHbiGqv_17rescue_groups_mcp3fmt23format_metadata_results
FN:331,_RNvNtNtCskhR2VHbiGqv_17rescue_groups_mcp3fmt5testss_25test_format_single_animal
FN:306,_RINvNtCskhR2VHbiGqv_17rescue_groups_mcp3fmt12print_outputNCNCNvNtB4_8commands14handle_command00EB4_
FN:306,_RINvNtCskhR2VHbiGqv_17rescue_groups_mcp3fmt12print_outputNCNCNvNtB4_8commands14handle_command0s0_0EB4_
FN:306,_RINvNtCskhR2VHbiGqv_17rescue_groups_mcp3fmt12print_outputNCNCNvNtB4_8commands14handle_command0s1_0EB4_
FN:306,_RINvNtCskhR2VHbiGqv_17rescue_groups_mcp3fmt12print_outputNCNCNvNtB4_8commands14handle_command0s2_0EB4_
FN:306,_RINvNtCskhR2VHbiGqv_17rescue_groups_mcp3fmt12print_outputNCNCNvNtB4_8commands14handle_command0s3_0EB4_
FN:306,_RINvNtCskhR2VHbiGqv_17rescue_groups_mcp3fmt12print_outputNCNCNvNtB4_8commands14handle_command0s4_0EB4_
FN:306,_RINvNtCskhR2VHbiGqv_17rescue_groups_mcp3fmt12print_outputNCNCNvNtB4_8commands14handle_command0s5_0EB4_
FN:306,_RINvNtCskhR2VHbiGqv_17rescue_groups_mcp3fmt12print_outputNCNCNvNtB4_8commands14handle_command0s6_0EB4_
FN:306,_RINvNtCskhR2VHbiGqv_17rescue_groups_mcp3fmt12print_outputNCNCNvNtB4_8commands14handle_command0s7_0EB4_
FN:306,_RINvNtCskhR2VHbiGqv_17rescue_groups_mcp3fmt12print_outputNCNCNvNtB4_8commands14handle_command0s8_0EB4_
FN:306,_RINvNtCskhR2VHbiGqv_17rescue_groups_mcp3fmt12print_outputNCNCNvNtB4_8commands14handle_command0s9_0EB4_
FN:306,_RINvNtCskhR2VHbiGqv_17rescue_groups_mcp3fmt12print_outputNCNCNvNtB4_8commands14handle_command0s_0EB4_
FN:306,_RINvNtCskhR2VHbiGqv_17rescue_groups_mcp3fmt12print_outputNCNCNvNtB4_8commands14handle_command0sa_0EB4_
FN:306,_RINvNtCskhR2VHbiGqv_17rescue_groups_mcp3fmt12print_outputNCNCNvNtB4_8commands14handle_command0sb_0EB4_
FN:50,_RNCNCNvNtCskhR2VHbiGqv_17rescue_groups_mcp3fmt19format_contact_info00B7_
FN:294,_RNCNCNvNtCskhR2VHbiGqv_17rescue_groups_mcp3fmt20format_breed_resultss_00B7_
FN:106,_RNCNCNvNtCskhR2VHbiGqv_17rescue_groups_mcp3fmt21format_animal_resultss_00B7_
FN:108,_RNCNCNvNtCskhR2VHbiGqv_17rescue_groups_mcp3fmt21format_animal_resultss_0s0_0B7_
FN:107,_RNCNCNvNtCskhR2VHbiGqv_17rescue_groups_mcp3fmt21format_animal_resultss_0s_0B7_
FN:218,_RNCNCNvNtCskhR2VHbiGqv_17rescue_groups_mcp3fmt22format_species_resultss_00B7_
FN:238,_RNCNCNvNtCskhR2VHbiGqv_17rescue_groups_mcp3fmt23format_metadata_resultss_00B7_
FN:253,_RNCNvNtCskhR2VHbiGqv_17rescue_groups_mcp3fmt18format_org_results0B5_
FN:263,_RNCNvNtCskhR2VHbiGqv_17rescue_groups_mcp3fmt18format_org_resultss_0B5_
FN:50,_RNCNvNtCskhR2VHbiGqv_17rescue_groups_mcp3fmt19format_contact_info0B5_
FN:285,_RNCNvNtCskhR2VHbiGqv_17rescue_groups_mcp3fmt20format_breed_results0B5_
FN:294,_RNCNvNtCskhR2VHbiGqv_17rescue_groups_mcp3fmt20format_breed_resultss_0B5_
FN:27,_RNCNvNtCskhR2VHbiGqv_17rescue_groups_mcp3fmt20format_single_animal0B5_
FN:29,_RNCNvNtCskhR2VHbiGqv_17rescue_groups_mcp3fmt20format_single_animals0_0B5_
FN:28,_RNCNvNtCskhR2VHbiGqv_17rescue_groups_mcp3fmt20format_single_animals_0B5_
FN:88,_RNCNvNtCskhR2VHbiGqv_17rescue_groups_mcp3fmt21format_animal_results0B5_
FN:98,_RNCNvNtCskhR2VHbiGqv_17rescue_groups_mcp3fmt21format_animal_resultss_0B5_
FN:209,_RNCNvNtCskhR2VHbiGqv_17rescue_groups_mcp3fmt22format_species_results0B5_
FN:218,_RNCNvNtCskhR2VHbiGqv_17rescue_groups_mcp3fmt22format_species_resultss_0B5_
FN:121,_RNCNvNtCskhR2VHbiGqv_17rescue_groups_mcp3fmt23format_comparison_table0B5_
FN:229,_RNCNvNtCskhR2VHbiGqv_17rescue_groups_mcp3fmt23format_metadata_results0B5_
FN:238,_RNCNvNtCskhR2VHbiGqv_17rescue_groups_mcp3fmt23format_metadata_resultss_0B5_
FNDA:0,_RNvNtCskhR2VHbiGqv_17rescue_groups_mcp3fmt17format_single_org
FNDA:0,_RNvNtCskhR2VHbiGqv_17rescue_groups_mcp3fmt18format_org_results
FNDA:0,_RNvNtCskhR2VHbiGqv_17rescue_groups_mcp3fmt19extract_single_item
FNDA:0,_RNvNtCskhR2VHbiGqv_17rescue_groups_mcp3fmt19format_contact_info
FNDA:0,_RNvNtCskhR2VHbiGqv_17rescue_groups_mcp3fmt20format_breed_details
FNDA:0,_RNvNtCskhR2VHbiGqv_17rescue_groups_mcp3fmt20format_breed_results
FNDA:1,_RNvNtCskhR2VHbiGqv_17rescue_groups_mcp3fmt20format_single_animal
FNDA:0,_RNvNtCskhR2VHbiGqv_17rescue_groups_mcp3fmt21format_animal_results
FNDA:0,_RNvNtCskhR2VHbiGqv_17rescue_groups_mcp3fmt22format_species_results
FNDA:0,_RNvNtCskhR2VHbiGqv_17rescue_groups_mcp3fmt23format_comparison_table
FNDA:0,_RNvNtCskhR2VHbiGqv_17rescue_groups_mcp3fmt23format_metadata_results
FNDA:1,_RNvNtNtCskhR2VHbiGqv_17rescue_groups_mcp3fmt5testss_25test_format_single_animal
FNDA:0,_RINvNtCskhR2VHbiGqv_17rescue_groups_mcp3fmt12print_outputNCNCNvNtB4_8commands14handle_command00EB4_
FNDA:0,_RINvNtCskhR2VHbiGqv_17rescue_groups_mcp3fmt12print_outputNCNCNvNtB4_8commands14handle_command0s0_0EB4_
FNDA:0,_RINvNtCskhR2VHbiGqv_17rescue_groups_mcp3fmt12print_outputNCNCNvNtB4_8commands14handle_command0s1_0EB4_
FNDA:0,_RINvNtCskhR2VHbiGqv_17rescue_groups_mcp3fmt12print_outputNCNCNvNtB4_8commands14handle_command0s2_0EB4_
FNDA:0,_RINvNtCskhR2VHbiGqv_17rescue_groups_mcp3fmt12print_outputNCNCNvNtB4_8commands14handle_command0s3_0EB4_
FNDA:0,_RINvNtCskhR2VHbiGqv_17rescue_groups_mcp3fmt12print_outputNCNCNvNtB4_8commands14handle_command0s4_0EB4_
FNDA:0,_RINvNtCskhR2VHbiGqv_17rescue_groups_mcp3fmt12print_outputNCNCNvNtB4_8commands14handle_command0s5_0EB4_
FNDA:0,_RINvNtCskhR2VHbiGqv_17rescue_groups_mcp3fmt12print_outputNCNCNvNtB4_8commands14handle_command0s6_0EB4_
FNDA:0,_RINvNtCskhR2VHbiGqv_17rescue_groups_mcp3fmt12print_outputNCNCNvNtB4_8commands14handle_command0s7_0EB4_
FNDA:0,_RINvNtCskhR2VHbiGqv_17rescue_groups_mcp3fmt12print_outputNCNCNvNtB4_8commands14handle_command0s8_0EB4_
FNDA:0,_RINvNtCskhR2VHbiGqv_17rescue_groups_mcp3fmt12print_outputNCNCNvNtB4_8commands14handle_command0s9_0EB4_
FNDA:0,_RINvNtCskhR2VHbiGqv_17rescue_groups_mcp3fmt12print_outputNCNCNvNtB4_8commands14handle_command0s_0EB4_
FNDA:0,_RINvNtCskhR2VHbiGqv_17rescue_groups_mcp3fmt12print_outputNCNCNvNtB4_8commands14handle_command0sa_0EB4_
FNDA:0,_RINvNtCskhR2VHbiGqv_17rescue_groups_mcp3fmt12print_outputNCNCNvNtB4_8commands14handle_command0sb_0EB4_
FNDA:0,_RNCNCNvNtCskhR2VHbiGqv_17rescue_groups_mcp3fmt19format_contact_info00B7_
FNDA:0,_RNCNCNvNtCskhR2VHbiGqv_17rescue_groups_mcp3fmt20format_breed_resultss_00B7_
FNDA:0,_RNCNCNvNtCskhR2VHbiGqv_17rescue_groups_mcp3fmt21format_animal_resultss_00B7_
FNDA:0,_RNCNCNvNtCskhR2VHbiGqv_17rescue_groups_mcp3fmt21format_animal_resultss_0s0_0B7_
FNDA:0,_RNCNCNvNtCskhR2VHbiGqv_17rescue_groups_mcp3fmt21format_animal_resultss_0s_0B7_
FNDA:0,_RNCNCNvNtCskhR2VHbiGqv_17rescue_groups_mcp3fmt22format_species_resultss_00B7_
FNDA:0,_RNCNCNvNtCskhR2VHbiGqv_17rescue_groups_mcp3fmt23format_metadata_resultss_00B7_
FNDA:0,_RNCNvNtCskhR2VHbiGqv_17rescue_groups_mcp3fmt18format_org_results0B5_
FNDA:0,_RNCNvNtCskhR2VHbiGqv_17rescue_groups_mcp3fmt18format_org_resultss_0B5_
FNDA:0,_RNCNvNtCskhR2VHbiGqv_17rescue_groups_mcp3fmt19format_contact_info0B5_
FNDA:0,_RNCNvNtCskhR2VHbiGqv_17rescue_groups_mcp3fmt20format_breed_results0B5_
FNDA:0,_RNCNvNtCskhR2VHbiGqv_17rescue_groups_mcp3fmt20format_breed_resultss_0B5_
FNDA:1,_RNCNvNtCskhR2VHbiGqv_17rescue_groups_mcp3fmt20format_single_animal0B5_
FNDA:1,_RNCNvNtCskhR2VHbiGqv_17rescue_groups_mcp3fmt20format_single_animals0_0B5_
FNDA:1,_RNCNvNtCskhR2VHbiGqv_17rescue_groups_mcp3fmt20format_single_animals_0B5_
FNDA:0,_RNCNvNtCskhR2VHbiGqv_17rescue_groups_mcp3fmt21format_animal_results0B5_
FNDA:0,_RNCNvNtCskhR2VHbiGqv_17rescue_groups_mcp3fmt21format_animal_resultss_0B5_
FNDA:0,_RNCNvNtCskhR2VHbiGqv_17rescue_groups_mcp3fmt22format_species_results0B5_
FNDA:0,_RNCNvNtCskhR2VHbiGqv_17rescue_groups_mcp3fmt22format_species_resultss_0B5_
FNDA:0,_RNCNvNtCskhR2VHbiGqv_17rescue_groups_mcp3fmt23format_comparison_table0B5_
FNDA:0,_RNCNvNtCskhR2VHbiGqv_17rescue_groups_mcp3fmt23format_metadata_results0B5_
FNDA:0,_RNCNvNtCskhR2VHbiGqv_17rescue_groups_mcp3fmt23format_metadata_resultss_0B5_
FNF:35
FNH:5
DA:5,0
DA:6,0
DA:7,0
DA:8,0
DA:9,0
DA:11,0
DA:13,1
DA:14,1
DA:15,1
DA:16,1
DA:17,1
DA:18,1
DA:19,1
DA:20,1
DA:21,1
DA:22,1
DA:23,1
DA:25,1
DA:26,1
DA:27,1
DA:28,1
DA:29,1
DA:30,1
DA:32,1
DA:36,1
DA:38,0
DA:39,0
DA:40,0
DA:42,0
DA:43,0
DA:45,0
DA:48,0
DA:49,0
DA:50,0
DA:52,0
DA:53,0
DA:54,0
DA:55,0
DA:56,0
DA:57,0
DA:58,0
DA:59,0
DA:61,0
DA:62,0
DA:63,0
DA:64,0
DA:65,0
DA:66,0
DA:67,0
DA:68,0
DA:69,0
DA:70,0
DA:71,0
DA:72,0
DA:74,0
DA:75,0
DA:76,0
DA:77,0
DA:78,0
DA:79,0
DA:80,0
DA:82,0
DA:83,0
DA:85,0
DA:86,0
DA:87,0
DA:88,0
DA:89,0
DA:91,0
DA:92,0
DA:93,0
DA:95,0
DA:96,0
DA:97,0
DA:98,0
DA:99,0
DA:100,0
DA:101,0
DA:102,0
DA:104,0
DA:105,0
DA:106,0
DA:107,0
DA:108,0
DA:109,0
DA:111,0
DA:112,0
DA:113,0
DA:115,0
DA:116,0
DA:118,0
DA:119,0
DA:120,0
DA:121,0
DA:122,0
DA:124,0
DA:125,0
DA:126,0
DA:128,0
DA:129,0
DA:132,0
DA:135,0
DA:136,0
DA:137,0
DA:138,0
DA:139,0
DA:140,0
DA:141,0
DA:144,0
DA:145,0
DA:146,0
DA:147,0
DA:148,0
DA:151,0
DA:152,0
DA:153,0
DA:154,0
DA:155,0
DA:156,0
DA:157,0
DA:158,0
DA:159,0
DA:160,0
DA:161,0
DA:162,0
DA:163,0
DA:164,0
DA:165,0
DA:166,0
DA:167,0
DA:168,0
DA:170,0
DA:172,0
DA:175,0
DA:176,0
DA:178,0
DA:179,0
DA:180,0
DA:181,0
DA:182,0
DA:183,0
DA:184,0
DA:185,0
DA:186,0
DA:187,0
DA:188,0
DA:189,0
DA:190,0
DA:191,0
DA:193,0
DA:197,0
DA:199,0
DA:200,0
DA:201,0
DA:203,0
DA:204,0
DA:206,0
DA:207,0
DA:208,0
DA:209,0
DA:210,0
DA:212,0
DA:213,0
DA:214,0
DA:216,0
DA:217,0
DA:218,0
DA:219,0
DA:221,0
DA:223,0
DA:224,0
DA:226,0
DA:227,0
DA:228,0
DA:229,0
DA:230,0
DA:232,0
DA:233,0
DA:234,0
DA:236,0
DA:237,0
DA:238,0
DA:239,0
DA:241,0
DA:243,0
DA:244,0
DA:245,0
DA:246,0
DA:247,0
DA:248,0
DA:250,0
DA:251,0
DA:252,0
DA:253,0
DA:254,0
DA:256,0
DA:257,0
DA:258,0
DA:260,0
DA:261,0
DA:262,0
DA:263,0
DA:264,0
DA:265,0
DA:266,0
DA:267,0
DA:268,0
DA:269,0
DA:270,0
DA:272,0
DA:276,0
DA:277,0
DA:279,0
DA:280,0
DA:282,0
DA:283,0
DA:284,0
DA:285,0
DA:286,0
DA:288,0
DA:289,0
DA:290,0
DA:292,0
DA:293,0
DA:294,0
DA:295,0
DA:297,0
DA:299,0
DA:300,0
DA:301,0
DA:302,0
DA:303,0
DA:304,0
DA:306,0
DA:307,0
DA:308,0
DA:310,0
DA:311,0
DA:312,0
DA:313,0
DA:314,0
DA:315,0
DA:316,0
DA:317,0
DA:321,0
DA:323,0
DA:331,1
DA:332,1
DA:333,1
DA:334,1
DA:335,1
DA:336,1
DA:337,1
DA:338,1
DA:339,1
DA:340,1
DA:341,1
DA:342,1
DA:347,1
DA:348,1
DA:349,1
DA:350,1
DA:351,1
BRF:0
BRH:0
LF:285
LH:39
end_of_record
SF:/home/nicholas/git/nicholaswilde/rescue-groups-mcp/src/main.rs
FN:23,_RNCNCNvCskhR2VHbiGqv_17rescue_groups_mcp4main00B5_
FN:20,_RNCNvCskhR2VHbiGqv_17rescue_groups_mcp4main0B3_
FN:20,_RNvCskhR2VHbiGqv_17rescue_groups_mcp4main
FNDA:0,_RNCNCNvCskhR2VHbiGqv_17rescue_groups_mcp4main00B5_
FNDA:0,_RNCNvCskhR2VHbiGqv_17rescue_groups_mcp4main0B3_
FNDA:0,_RNvCskhR2VHbiGqv_17rescue_groups_mcp4main
FNF:3
FNH:0
DA:20,0
DA:22,0
DA:23,0
DA:25,0
DA:26,0
DA:27,0
DA:28,0
DA:29,0
DA:30,0
DA:31,0
DA:32,0
DA:33,0
DA:34,0
DA:35,0
DA:36,0
DA:37,0
DA:38,0
DA:39,0
DA:42,0
DA:44,0
DA:45,0
DA:47,0
DA:48,0
DA:49,0
DA:50,0
DA:51,0
DA:52,0
DA:53,0
DA:54,0
DA:55,0
DA:56,0
DA:57,0
DA:58,0
DA:59,0
BRF:0
BRH:0
LF:43
LH:0
end_of_record
SF:/home/nicholas/git/nicholaswilde/rescue-groups-mcp/src/mcp.rs
FN:603,_RNvNtNtCskhR2VHbiGqv_17rescue_groups_mcp3mcp5tests17get_test_settings
FN:630,_RNvNtNtCskhR2VHbiGqv_17rescue_groups_mcp3mcp5testss_35test_format_json_rpc_response_error
FN:640,_RNvNtNtCskhR2VHbiGqv_17rescue_groups_mcp3mcp5testss_35test_process_mcp_request_initialize
FN:656,_RNvNtNtCskhR2VHbiGqv_17rescue_groups_mcp3mcp5testss_35test_process_mcp_request_tools_list
FN:620,_RNvNtNtCskhR2VHbiGqv_17rescue_groups_mcp3mcp5testss_37test_format_json_rpc_response_success
FN:676,_RNvNtNtCskhR2VHbiGqv_17rescue_groups_mcp3mcp5testss_55test_process_mcp_request_tools_call_get_breed_not_found
FN:247,_RNvNtCskhR2VHbiGqv_17rescue_groups_mcp3mcp16handle_tool_call
FN:536,_RNvNtCskhR2VHbiGqv_17rescue_groups_mcp3mcp19process_mcp_request
FN:581,_RNvNtCskhR2VHbiGqv_17rescue_groups_mcp3mcp24format_json_rpc_response
FN:30,_RNvNtCskhR2VHbiGqv_17rescue_groups_mcp3mcp24get_all_tool_definitions
FN:234,_RNvNtCskhR2VHbiGqv_17rescue_groups_mcp3mcp25get_core_tool_definitions
FN:285,_RNCNCNvNtCskhR2VHbiGqv_17rescue_groups_mcp3mcp16handle_tool_call00B7_
FN:343,_RNCNCNvNtCskhR2VHbiGqv_17rescue_groups_mcp3mcp16handle_tool_call0s0_0B7_
FN:412,_RNCNCNvNtCskhR2VHbiGqv_17rescue_groups_mcp3mcp16handle_tool_call0s1_0B7_
FN:469,_RNCNCNvNtCskhR2VHbiGqv_17rescue_groups_mcp3mcp16handle_tool_call0s2_0B7_
FN:470,_RNCNCNvNtCskhR2VHbiGqv_17rescue_groups_mcp3mcp16handle_tool_call0s3_0B7_
FN:471,_RNCNCNvNtCskhR2VHbiGqv_17rescue_groups_mcp3mcp16handle_tool_call0s4_0B7_
FN:472,_RNCNCNvNtCskhR2VHbiGqv_17rescue_groups_mcp3mcp16handle_tool_call0s5_0B7_
FN:500,_RNCNCNvNtCskhR2VHbiGqv_17rescue_groups_mcp3mcp16handle_tool_call0s6_0B7_
FN:501,_RNCNCNvNtCskhR2VHbiGqv_17rescue_groups_mcp3mcp16handle_tool_call0s7_0B7_
FN:502,_RNCNCNvNtCskhR2VHbiGqv_17rescue_groups_mcp3mcp16handle_tool_call0s8_0B7_
FN:507,_RNCNCNvNtCskhR2VHbiGqv_17rescue_groups_mcp3mcp16handle_tool_call0s9_0B7_
FN:322,_RNCNCNvNtCskhR2VHbiGqv_17rescue_groups_mcp3mcp16handle_tool_call0s_0B7_
FN:519,_RNCNCNvNtCskhR2VHbiGqv_17rescue_groups_mcp3mcp16handle_tool_call0sa_0B7_
FN:251,_RNCNvNtCskhR2VHbiGqv_17rescue_groups_mcp3mcp16handle_tool_call0B5_
FN:539,_RNCNvNtCskhR2VHbiGqv_17rescue_groups_mcp3mcp19process_mcp_request0B5_
FN:243,_RNCNvNtCskhR2VHbiGqv_17rescue_groups_mcp3mcp25get_core_tool_definitions0B5_
FN:669,_RNCNCNvNtNtCskhR2VHbiGqv_17rescue_groups_mcp3mcp5testss_35test_process_mcp_request_tools_list00B9_
FN:671,_RNCNCNvNtNtCskhR2VHbiGqv_17rescue_groups_mcp3mcp5testss_35test_process_mcp_request_tools_list0s_0B9_
FN:640,_RNCNvNtNtCskhR2VHbiGqv_17rescue_groups_mcp3mcp5testss_35test_process_mcp_request_initialize0B7_
FN:656,_RNCNvNtNtCskhR2VHbiGqv_17rescue_groups_mcp3mcp5testss_35test_process_mcp_request_tools_list0B7_
FN:676,_RNCNvNtNtCskhR2VHbiGqv_17rescue_groups_mcp3mcp5testss_55test_process_mcp_request_tools_call_get_breed_not_found0B7_
FNDA:3,_RNvNtNtCskhR2VHbiGqv_17rescue_groups_mcp3mcp5tests17get_test_settings
FNDA:1,_RNvNtNtCskhR2VHbiGqv_17rescue_groups_mcp3mcp5testss_35test_format_json_rpc_response_error
FNDA:1,_RNvNtNtCskhR2VHbiGqv_17rescue_groups_mcp3mcp5testss_35test_process_mcp_request_initialize
FNDA:1,_RNvNtNtCskhR2VHbiGqv_17rescue_groups_mcp3mcp5testss_35test_process_mcp_request_tools_list
FNDA:1,_RNvNtNtCskhR2VHbiGqv_17rescue_groups_mcp3mcp5testss_37test_format_json_rpc_response_success
FNDA:1,_RNvNtNtCskhR2VHbiGqv_17rescue_groups_mcp3mcp5testss_55test_process_mcp_request_tools_call_get_breed_not_found
FNDA:1,_RNvNtCskhR2VHbiGqv_17rescue_groups_mcp3mcp16handle_tool_call
FNDA:3,_RNvNtCskhR2VHbiGqv_17rescue_groups_mcp3mcp19process_mcp_request
FNDA:2,_RNvNtCskhR2VHbiGqv_17rescue_groups_mcp3mcp24format_json_rpc_response
FNDA:1,_RNvNtCskhR2VHbiGqv_17rescue_groups_mcp3mcp24get_all_tool_definitions
FNDA:0,_RNvNtCskhR2VHbiGqv_17rescue_groups_mcp3mcp25get_core_tool_definitions
FNDA:0,_RNCNCNvNtCskhR2VHbiGqv_17rescue_groups_mcp3mcp16handle_tool_call00B7_
FNDA:0,_RNCNCNvNtCskhR2VHbiGqv_17rescue_groups_mcp3mcp16handle_tool_call0s0_0B7_
FNDA:0,_RNCNCNvNtCskhR2VHbiGqv_17rescue_groups_mcp3mcp16handle_tool_call0s1_0B7_
FNDA:0,_RNCNCNvNtCskhR2VHbiGqv_17rescue_groups_mcp3mcp16handle_tool_call0s2_0B7_
FNDA:0,_RNCNCNvNtCskhR2VHbiGqv_17rescue_groups_mcp3mcp16handle_tool_call0s3_0B7_
FNDA:0,_RNCNCNvNtCskhR2VHbiGqv_17rescue_groups_mcp3mcp16handle_tool_call0s4_0B7_
FNDA:0,_RNCNCNvNtCskhR2VHbiGqv_17rescue_groups_mcp3mcp16handle_tool_call0s5_0B7_
FNDA:0,_RNCNCNvNtCskhR2VHbiGqv_17rescue_groups_mcp3mcp16handle_tool_call0s6_0B7_
FNDA:0,_RNCNCNvNtCskhR2VHbiGqv_17rescue_groups_mcp3mcp16handle_tool_call0s7_0B7_
FNDA:0,_RNCNCNvNtCskhR2VHbiGqv_17rescue_groups_mcp3mcp16handle_tool_call0s8_0B7_
FNDA:0,_RNCNCNvNtCskhR2VHbiGqv_17rescue_groups_mcp3mcp16handle_tool_call0s9_0B7_
FNDA:0,_RNCNCNvNtCskhR2VHbiGqv_17rescue_groups_mcp3mcp16handle_tool_call0s_0B7_
FNDA:0,_RNCNCNvNtCskhR2VHbiGqv_17rescue_groups_mcp3mcp16handle_tool_call0sa_0B7_
FNDA:1,_RNCNvNtCskhR2VHbiGqv_17rescue_groups_mcp3mcp16handle_tool_call0B5_
FNDA:3,_RNCNvNtCskhR2VHbiGqv_17rescue_groups_mcp3mcp19process_mcp_request0B5_
FNDA:0,_RNCNvNtCskhR2VHbiGqv_17rescue_groups_mcp3mcp25get_core_tool_definitions0B5_
FNDA:1,_RNCNCNvNtNtCskhR2VHbiGqv_17rescue_groups_mcp3mcp5testss_35test_process_mcp_request_tools_list00B9_
FNDA:6,_RNCNCNvNtNtCskhR2VHbiGqv_17rescue_groups_mcp3mcp5testss_35test_process_mcp_request_tools_list0s_0B9_
FNDA:1,_RNCNvNtNtCskhR2VHbiGqv_17rescue_groups_mcp3mcp5testss_35test_process_mcp_request_initialize0B7_
FNDA:1,_RNCNvNtNtCskhR2VHbiGqv_17rescue_groups_mcp3mcp5testss_35test_process_mcp_request_tools_list0B7_
FNDA:1,_RNCNvNtNtCskhR2VHbiGqv_17rescue_groups_mcp3mcp5testss_55test_process_mcp_request_tools_call_get_breed_not_found0B7_
FNF:32
FNH:17
DA:30,1
DA:31,1
DA:32,1
DA:33,1
DA:34,1
DA:35,1
DA:36,1
DA:37,1
DA:40,1
DA:41,1
DA:42,1
DA:43,1
DA:44,1
DA:45,1
DA:48,1
DA:49,1
DA:50,1
DA:51,1
DA:52,1
DA:53,1
DA:54,1
DA:55,1
DA:56,1
DA:58,1
DA:59,1
DA:60,1
DA:63,1
DA:66,1
DA:67,1
DA:68,1
DA:69,1
DA:70,1
DA:71,1
DA:74,1
DA:75,1
DA:76,1
DA:77,1
DA:78,1
DA:79,1
DA:80,1
DA:82,1
DA:85,1
DA:86,1
DA:87,1
DA:88,1
DA:89,1
DA:90,1
DA:91,1
DA:93,1
DA:96,1
DA:97,1
DA:98,1
DA:99,1
DA:100,1
DA:101,1
DA:102,1
DA:104,1
DA:107,1
DA:108,1
DA:109,1
DA:110,1
DA:111,1
DA:112,1
DA:113,1
DA:115,1
DA:118,1
DA:119,1
DA:120,1
DA:121,1
DA:122,1
DA:123,1
DA:124,1
DA:125,1
DA:126,1
DA:127,1
DA:130,1
DA:133,1
DA:134,1
DA:135,1
DA:136,1
DA:137,1
DA:138,1
DA:139,1
DA:141,1
DA:144,1
DA:145,1
DA:146,1
DA:147,1
DA:148,1
DA:149,1
DA:150,1
DA:152,1
DA:155,1
DA:156,1
DA:157,1
DA:158,1
DA:159,1
DA:160,1
DA:161,1
DA:162,1
DA:163,1
DA:167,1
DA:168,1
DA:169,1
DA:170,1
DA:171,1
DA:172,1
DA:173,1
DA:174,1
DA:175,1
DA:176,1
DA:177,1
DA:178,1
DA:179,1
DA:180,1
DA:181,1
DA:182,1
DA:183,1
DA:184,1
DA:185,1
DA:186,1
DA:187,1
DA:188,1
DA:189,1
DA:190,1
DA:191,1
DA:196,1
DA:197,1
DA:198,1
DA:199,1
DA:200,1
DA:201,1
DA:202,1
DA:206,1
DA:207,1
DA:208,1
DA:209,1
DA:210,1
DA:211,1
DA:212,1
DA:213,1
DA:214,1
DA:218,1
DA:219,1
DA:220,1
DA:221,1
DA:222,1
DA:223,1
DA:224,1
DA:225,1
DA:226,1
DA:232,1
DA:234,0
DA:235,0
DA:236,0
DA:237,0
DA:238,0
DA:239,0
DA:240,0
DA:242,0
DA:243,0
DA:244,0
DA:245,0
DA:247,1
DA:248,1
DA:249,1
DA:250,1
DA:251,1
DA:252,1
DA:253,1
DA:254,0
DA:255,0
DA:256,0
DA:258,1
DA:259,0
DA:260,0
DA:261,0
DA:263,1
DA:264,0
DA:265,0
DA:266,0
DA:267,0
DA:268,0
DA:269,0
DA:271,0
DA:272,0
DA:273,0
DA:274,0
DA:276,0
DA:277,0
DA:278,0
DA:280,1
DA:281,0
DA:282,0
DA:283,0
DA:284,0
DA:285,0
DA:286,0
DA:287,0
DA:288,0
DA:289,0
DA:290,0
DA:292,1
DA:293,0
DA:294,0
DA:295,0
DA:296,0
DA:297,0
DA:298,0
DA:300,0
DA:301,0
DA:302,0
DA:304,0
DA:305,0
DA:306,0
DA:308,1
DA:309,1
DA:310,1
DA:311,1
DA:312,1
DA:313,1
DA:314,1
DA:316,1
DA:317,1
DA:318,1
DA:320,1
DA:321,0
DA:322,0
DA:323,0
DA:324,0
DA:326,0
DA:329,0
DA:330,0
DA:331,0
DA:332,0
DA:333,0
DA:334,0
DA:335,0
DA:337,0
DA:338,0
DA:339,0
DA:341,0
DA:342,0
DA:343,0
DA:344,0
DA:345,0
DA:347,0
DA:350,0
DA:351,0
DA:352,0
DA:353,0
DA:354,0
DA:355,0
DA:356,0
DA:358,0
DA:359,0
DA:360,0
DA:362,0
DA:363,0
DA:364,0
DA:366,0
DA:367,0
DA:368,0
DA:369,0
DA:370,0
DA:371,0
DA:372,0
DA:374,0
DA:376,0
DA:377,0
DA:378,0
DA:380,0
DA:381,0
DA:382,0
DA:383,0
DA:384,0
DA:385,0
DA:386,0
DA:388,0
DA:389,0
DA:390,0
DA:391,0
DA:392,0
DA:394,0
DA:395,0
DA:396,0
DA:398,0
DA:399,0
DA:400,0
DA:401,0
DA:402,0
DA:403,0
DA:404,0
DA:406,0
DA:407,0
DA:408,0
DA:410,0
DA:411,0
DA:412,0
DA:413,0
DA:414,0
DA:416,0
DA:419,0
DA:420,0
DA:421,0
DA:422,0
DA:423,0
DA:424,0
DA:425,0
DA:427,0
DA:428,0
DA:429,0
DA:431,0
DA:432,0
DA:433,0
DA:435,0
DA:436,0
DA:437,0
DA:438,0
DA:439,0
DA:440,0
DA:441,0
DA:443,0
DA:444,0
DA:445,0
DA:446,0
DA:447,0
DA:448,0
DA:449,0
DA:450,0
DA:451,0
DA:452,0
DA:453,0
DA:454,0
DA:455,0
DA:456,0
DA:457,0
DA:458,0
DA:459,0
DA:460,0
DA:462,0
DA:463,0
DA:464,0
DA:466,0
DA:467,0
DA:468,0
DA:469,0
DA:470,0
DA:471,0
DA:472,0
DA:474,0
DA:476,0
DA:477,0
DA:479,0
DA:480,0
DA:481,0
DA:482,0
DA:483,0
DA:484,0
DA:485,0
DA:487,0
DA:488,0
DA:489,0
DA:490,0
DA:491,0
DA:493,0
DA:494,0
DA:495,0
DA:497,0
DA:498,0
DA:499,0
DA:500,0
DA:501,0
DA:502,0
DA:504,0
DA:506,0
DA:507,0
DA:508,0
DA:509,0
DA:510,0
DA:512,0
DA:516,0
DA:517,0
DA:518,0
DA:519,0
DA:520,0
DA:522,0
DA:523,0
DA:525,0
DA:526,0
DA:527,0
DA:529,0
DA:532,0
DA:534,1
DA:536,3
DA:537,3
DA:538,3
DA:539,3
DA:540,3
DA:541,3
DA:542,1
DA:543,1
DA:544,1
DA:545,1
DA:547,2
DA:549,2
DA:550,1
DA:551,0
DA:553,1
DA:555,1
DA:558,1
DA:559,1
DA:560,1
DA:561,1
DA:562,0
DA:563,1
DA:564,1
DA:565,1
DA:569,0
DA:573,0
DA:575,0
DA:578,3
DA:579,3
DA:581,2
DA:582,2
DA:583,2
DA:584,2
DA:586,2
DA:587,1
DA:588,1
DA:590,2
DA:591,2
DA:603,3
DA:604,3
DA:605,3
DA:606,3
DA:607,3
DA:608,3
DA:609,3
DA:610,3
DA:611,3
DA:612,3
DA:613,3
DA:614,3
DA:615,3
DA:616,3
DA:617,3
DA:620,1
DA:621,1
DA:622,1
DA:623,1
DA:624,1
DA:625,1
DA:626,1
DA:627,1
DA:630,1
DA:631,1
DA:632,1
DA:633,1
DA:634,1
DA:635,1
DA:636,1
DA:637,1
DA:640,1
DA:641,1
DA:642,1
DA:643,1
DA:644,1
DA:645,1
DA:646,1
DA:647,1
DA:649,1
DA:650,1
DA:651,1
DA:652,1
DA:653,1
DA:656,1
DA:657,1
DA:658,1
DA:659,1
DA:660,1
DA:661,1
DA:662,1
DA:663,1
DA:665,1
DA:666,1
DA:667,1
DA:668,1
DA:669,1
DA:670,1
DA:671,6
DA:672,1
DA:673,1
DA:676,1
DA:677,1
DA:678,1
DA:679,1
DA:680,1
DA:681,1
DA:682,1
DA:683,1
DA:684,1
DA:685,1
DA:686,1
DA:687,1
DA:688,1
DA:690,1
DA:693,1
DA:694,1
BRF:0
BRH:0
LF:533
LH:295
end_of_record
SF:/home/nicholas/git/nicholaswilde/rescue-groups-mcp/src/server.rs
FN:41,_RNvNtCskhR2VHbiGqv_17rescue_groups_mcp6server15run_http_server
FN:66,_RNvNtCskhR2VHbiGqv_17rescue_groups_mcp6server16run_stdio_server
FN:130,_RNvNtCskhR2VHbiGqv_17rescue_groups_mcp6server11sse_handler
FN:101,_RNvNtCskhR2VHbiGqv_17rescue_groups_mcp6server12http_handler
FN:146,_RNvNtCskhR2VHbiGqv_17rescue_groups_mcp6server15message_handler
FN:110,_RNCNCNvNtCskhR2VHbiGqv_17rescue_groups_mcp6server12http_handler00B7_
FN:57,_RNCNCNvNtCskhR2VHbiGqv_17rescue_groups_mcp6server15run_http_server00B7_
FN:132,_RNCNvNtCskhR2VHbiGqv_17rescue_groups_mcp6server11sse_handler0B5_
FN:105,_RNCNvNtCskhR2VHbiGqv_17rescue_groups_mcp6server12http_handler0B5_
FN:150,_RNCNvNtCskhR2VHbiGqv_17rescue_groups_mcp6server15message_handler0B5_
FN:41,_RNCNvNtCskhR2VHbiGqv_17rescue_groups_mcp6server15run_http_server0B5_
FN:66,_RNCNvNtCskhR2VHbiGqv_17rescue_groups_mcp6server16run_stdio_server0B5_
FNDA:0,_RNvNtCskhR2VHbiGqv_17rescue_groups_mcp6server15run_http_server
FNDA:0,_RNvNtCskhR2VHbiGqv_17rescue_groups_mcp6server16run_stdio_server
FNDA:0,_RNvNtCskhR2VHbiGqv_17rescue_groups_mcp6server11sse_handler
FNDA:0,_RNvNtCskhR2VHbiGqv_17rescue_groups_mcp6server12http_handler
FNDA:0,_RNvNtCskhR2VHbiGqv_17rescue_groups_mcp6server15message_handler
FNDA:0,_RNCNCNvNtCskhR2VHbiGqv_17rescue_groups_mcp6server12http_handler00B7_
FNDA:0,_RNCNCNvNtCskhR2VHbiGqv_17rescue_groups_mcp6server15run_http_server00B7_
FNDA:0,_RNCNvNtCskhR2VHbiGqv_17rescue_groups_mcp6server11sse_handler0B5_
FNDA:0,_RNCNvNtCskhR2VHbiGqv_17rescue_groups_mcp6server12http_handler0B5_
FNDA:0,_RNCNvNtCskhR2VHbiGqv_17rescue_groups_mcp6server15message_handler0B5_
FNDA:0,_RNCNvNtCskhR2VHbiGqv_17rescue_groups_mcp6server15run_http_server0B5_
FNDA:0,_RNCNvNtCskhR2VHbiGqv_17rescue_groups_mcp6server16run_stdio_server0B5_
FNF:12
FNH:0
DA:41,0
DA:42,0
DA:43,0
DA:44,0
DA:45,0
DA:46,0
DA:48,0
DA:49,0
DA:50,0
DA:51,0
DA:52,0
DA:53,0
DA:55,0
DA:56,0
DA:57,0
DA:58,0
DA:60,0
DA:61,0
DA:62,0
DA:66,0
DA:67,0
DA:68,0
DA:69,0
DA:71,0
DA:74,0
DA:75,0
DA:76,0
DA:77,0
DA:79,0
DA:80,0
DA:81,0
DA:82,0
DA:84,0
DA:85,0
DA:86,0
DA:90,0
DA:92,0
DA:93,0
DA:94,0
DA:95,0
DA:96,0
DA:98,0
DA:99,0
DA:101,0
DA:102,0
DA:103,0
DA:104,0
DA:105,0
DA:107,0
DA:108,0
DA:109,0
DA:110,0
DA:111,0
DA:113,0
DA:114,0
DA:115,0
DA:116,0
DA:117,0
DA:119,0
DA:120,0
DA:122,0
DA:123,0
DA:124,0
DA:126,0
DA:128,0
DA:130,0
DA:131,0
DA:132,0
DA:133,0
DA:134,0
DA:137,0
DA:138,0
DA:140,0
DA:142,0
DA:143,0
DA:144,0
DA:146,0
DA:147,0
DA:148,0
DA:149,0
DA:150,0
DA:151,0
DA:153,0
DA:154,0
DA:157,0
DA:158,0
DA:159,0
DA:160,0
DA:161,0
DA:162,0
DA:164,0
DA:165,0
BRF:0
BRH:0
LF:99
LH:0
end_of_record